target datalayout = "e-m:e-p270:32:32-p271:32:32-p272:64:64-i64:64-i128:128-f80:128-n8:16:32:64-S128"
target triple = "x86_64-pc-linux-gnu"

; Function Attrs: inlinehint nounwind uwtable
define internal i32 @VP8ClipUV(i32 noundef %0, i32 noundef %1) #3 {
  %3 = alloca i32, align 4
  %4 = alloca i32, align 4
  store i32 %0, ptr %3, align 4, !tbaa !8
  store i32 %1, ptr %4, align 4, !tbaa !8
  %5 = load i32, ptr %3, align 4, !tbaa !8
  %6 = load i32, ptr %4, align 4, !tbaa !8
  %7 = add nsw i32 %5, %6
  %8 = add nsw i32 %7, 33554432
  %9 = ashr i32 %8, 18
  store i32 %9, ptr %3, align 4, !tbaa !8
  %10 = load i32, ptr %3, align 4, !tbaa !8
  %11 = and i32 %10, -256
  %12 = icmp eq i32 %11, 0
  br i1 %12, label %13, label %15

13:                                               ; preds = %2
  %14 = load i32, ptr %3, align 4, !tbaa !8
  br label %19

15:                                               ; preds = %2
  %16 = load i32, ptr %3, align 4, !tbaa !8
  %17 = icmp slt i32 %16, 0
  %18 = select i1 %17, i32 0, i32 255
  br label %19

19:                                               ; preds = %15, %13
  %20 = phi i32 [ %14, %13 ], [ %18, %15 ]
  ret i32 %20
}

; Function Attrs: inlinehint nounwind uwtable
define internal i32 @VP8RGBToV(i32 noundef %0, i32 noundef %1, i32 noundef %2, i32 noundef %3) #3 {
  %5 = alloca i32, align 4
  %6 = alloca i32, align 4
  %7 = alloca i32, align 4
  %8 = alloca i32, align 4
  %9 = alloca i32, align 4
  store i32 %0, ptr %5, align 4, !tbaa !8
  store i32 %1, ptr %6, align 4, !tbaa !8
  store i32 %2, ptr %7, align 4, !tbaa !8
  store i32 %3, ptr %8, align 4, !tbaa !8
  call void @llvm.lifetime.start.p0(i64 4, ptr %9) #5
  %10 = load i32, ptr %5, align 4, !tbaa !8
  %11 = mul nsw i32 28800, %10
  %12 = load i32, ptr %6, align 4, !tbaa !8
  %13 = mul nsw i32 24116, %12
  %14 = sub nsw i32 %11, %13
  %15 = load i32, ptr %7, align 4, !tbaa !8
  %16 = mul nsw i32 4684, %15
  %17 = sub nsw i32 %14, %16
  store i32 %17, ptr %9, align 4, !tbaa !8
  %18 = load i32, ptr %9, align 4, !tbaa !8
  %19 = load i32, ptr %8, align 4, !tbaa !8
  %20 = call i32 @VP8ClipUV(i32 noundef %18, i32 noundef %19)
  call void @llvm.lifetime.end.p0(i64 4, ptr %9) #5
  ret i32 %20
}

; Function Attrs: inlinehint nounwind uwtable
define internal i32 @VP8RGBToU(i32 noundef %0, i32 noundef %1, i32 noundef %2, i32 noundef %3) #3 {
  %5 = alloca i32, align 4
  %6 = alloca i32, align 4
  %7 = alloca i32, align 4
  %8 = alloca i32, align 4
  %9 = alloca i32, align 4
  store i32 %0, ptr %5, align 4, !tbaa !8
  store i32 %1, ptr %6, align 4, !tbaa !8
  store i32 %2, ptr %7, align 4, !tbaa !8
  store i32 %3, ptr %8, align 4, !tbaa !8
  call void @llvm.lifetime.start.p0(i64 4, ptr %9) #5
  %10 = load i32, ptr %5, align 4, !tbaa !8
  %11 = mul nsw i32 -9719, %10
  %12 = load i32, ptr %6, align 4, !tbaa !8
  %13 = mul nsw i32 19081, %12
  %14 = sub nsw i32 %11, %13
  %15 = load i32, ptr %7, align 4, !tbaa !8
  %16 = mul nsw i32 28800, %15
  %17 = add nsw i32 %14, %16
  store i32 %17, ptr %9, align 4, !tbaa !8
  %18 = load i32, ptr %9, align 4, !tbaa !8
  %19 = load i32, ptr %8, align 4, !tbaa !8
  %20 = call i32 @VP8ClipUV(i32 noundef %18, i32 noundef %19)
  call void @llvm.lifetime.end.p0(i64 4, ptr %9) #5
  ret i32 %20
}

; Function Attrs: nounwind uwtable
define hidden void @WebPConvertRGBA32ToUV_C(ptr noalias noundef %0, ptr noalias noundef %1, ptr noalias noundef %2, i32 noundef %3) #0 {
  %5 = alloca ptr, align 8
  %6 = alloca ptr, align 8
  %7 = alloca ptr, align 8
  %8 = alloca i32, align 4
  %9 = alloca i32, align 4
  %10 = alloca i32, align 4
  %11 = alloca i32, align 4
  %12 = alloca i32, align 4
  store ptr %0, ptr %5, align 8, !tbaa !17
  store ptr %1, ptr %6, align 8, !tbaa !3
  store ptr %2, ptr %7, align 8, !tbaa !3
  store i32 %3, ptr %8, align 4, !tbaa !8
  call void @llvm.lifetime.start.p0(i64 4, ptr %9) #5
  store i32 0, ptr %9, align 4, !tbaa !8
  br label %13

13:                                               ; preds = %48, %4
  %14 = load i32, ptr %9, align 4, !tbaa !8
  %15 = load i32, ptr %8, align 4, !tbaa !8
  %16 = icmp slt i32 %14, %15
  br i1 %16, label %17, label %53

17:                                               ; preds = %13
  call void @llvm.lifetime.start.p0(i64 4, ptr %10) #5
  %18 = load ptr, ptr %5, align 8, !tbaa !17
  %19 = getelementptr inbounds i16, ptr %18, i64 0
  %20 = load i16, ptr %19, align 2, !tbaa !19
  %21 = zext i16 %20 to i32
  store i32 %21, ptr %10, align 4, !tbaa !8
  call void @llvm.lifetime.start.p0(i64 4, ptr %11) #5
  %22 = load ptr, ptr %5, align 8, !tbaa !17
  %23 = getelementptr inbounds i16, ptr %22, i64 1
  %24 = load i16, ptr %23, align 2, !tbaa !19
  %25 = zext i16 %24 to i32
  store i32 %25, ptr %11, align 4, !tbaa !8
  call void @llvm.lifetime.start.p0(i64 4, ptr %12) #5
  %26 = load ptr, ptr %5, align 8, !tbaa !17
  %27 = getelementptr inbounds i16, ptr %26, i64 2
  %28 = load i16, ptr %27, align 2, !tbaa !19
  %29 = zext i16 %28 to i32
  store i32 %29, ptr %12, align 4, !tbaa !8
  %30 = load i32, ptr %10, align 4, !tbaa !8
  %31 = load i32, ptr %11, align 4, !tbaa !8
  %32 = load i32, ptr %12, align 4, !tbaa !8
  %33 = call i32 @VP8RGBToU(i32 noundef %30, i32 noundef %31, i32 noundef %32, i32 noundef 131072)
  %34 = trunc i32 %33 to i8
  %35 = load ptr, ptr %6, align 8, !tbaa !3
  %36 = load i32, ptr %9, align 4, !tbaa !8
  %37 = sext i32 %36 to i64
  %38 = getelementptr inbounds i8, ptr %35, i64 %37
  store i8 %34, ptr %38, align 1, !tbaa !15
  %39 = load i32, ptr %10, align 4, !tbaa !8
  %40 = load i32, ptr %11, align 4, !tbaa !8
  %41 = load i32, ptr %12, align 4, !tbaa !8
  %42 = call i32 @VP8RGBToV(i32 noundef %39, i32 noundef %40, i32 noundef %41, i32 noundef 131072)
  %43 = trunc i32 %42 to i8
  %44 = load ptr, ptr %7, align 8, !tbaa !3
  %45 = load i32, ptr %9, align 4, !tbaa !8
  %46 = sext i32 %45 to i64
  %47 = getelementptr inbounds i8, ptr %44, i64 %46
  store i8 %43, ptr %47, align 1, !tbaa !15
  call void @llvm.lifetime.end.p0(i64 4, ptr %12) #5
  call void @llvm.lifetime.end.p0(i64 4, ptr %11) #5
  call void @llvm.lifetime.end.p0(i64 4, ptr %10) #5
  br label %48

48:                                               ; preds = %17
  %49 = load i32, ptr %9, align 4, !tbaa !8
  %50 = add nsw i32 %49, 1
  store i32 %50, ptr %9, align 4, !tbaa !8
  %51 = load ptr, ptr %5, align 8, !tbaa !17
  %52 = getelementptr inbounds i16, ptr %51, i64 4
  store ptr %52, ptr %5, align 8, !tbaa !17
  br label %13, !llvm.loop !21

53:                                               ; preds = %13
  call void @llvm.lifetime.end.p0(i64 4, ptr %9) #5
  ret void
}