; Function Attrs: nofree norecurse nosync nounwind memory(argmem: readwrite) uwtable
define hidden void @WebPConvertRGBA32ToUV_C(ptr noalias noundef readonly captures(none) %0, ptr noalias noundef writeonly captures(none) %1, ptr noalias noundef writeonly captures(none) %2, i32 noundef %3) #2 {
  %5 = icmp sgt i32 %3, 0
  br i1 %5, label %.lr.ph.preheader, label %._crit_edge

.lr.ph.preheader:                                 ; preds = %4
  %wide.trip.count = zext nneg i32 %3 to i64
  br label %.lr.ph

.lr.ph:                                           ; preds = %.lr.ph.preheader, %.lr.ph
  %indvars.iv = phi i64 [ 0, %.lr.ph.preheader ], [ %indvars.iv.next, %.lr.ph ]
  %.019 = phi ptr [ %0, %.lr.ph.preheader ], [ %33, %.lr.ph ]
  %6 = load i16, ptr %.019, align 2, !tbaa !13
  %7 = zext i16 %6 to i32
  %8 = getelementptr inbounds nuw i8, ptr %.019, i64 2
  %9 = load i16, ptr %8, align 2, !tbaa !13
  %10 = zext i16 %9 to i32
  %11 = getelementptr inbounds nuw i8, ptr %.019, i64 4
  %12 = load i16, ptr %11, align 2, !tbaa !13
  %13 = zext i16 %12 to i32
  %14 = mul nsw i32 %7, -9719
  %.neg.i = mul nsw i32 %10, -19081
  %15 = mul nuw nsw i32 %13, 28800
  %16 = add nsw i32 %14, 33685504
  %17 = add nsw i32 %16, %.neg.i
  %18 = add nsw i32 %17, %15
  %19 = ashr i32 %18, 18
  %20 = tail call i32 @llvm.smax.i32(i32 %19, i32 0)
  %21 = tail call range(i32 0, 256) i32 @llvm.umin.i32(i32 %20, i32 255)
  %22 = trunc nuw i32 %21 to i8
  %23 = getelementptr inbounds nuw i8, ptr %1, i64 %indvars.iv
  store i8 %22, ptr %23, align 1, !tbaa !11
  %24 = mul nuw nsw i32 %7, 28800
  %.neg.i17 = mul nsw i32 %10, -24116
  %.neg5.i = mul nsw i32 %13, -4684
  %25 = add nuw nsw i32 %24, 33685504
  %26 = add nsw i32 %25, %.neg.i17
  %27 = add nsw i32 %26, %.neg5.i
  %28 = ashr i32 %27, 18
  %29 = tail call i32 @llvm.smax.i32(i32 %28, i32 0)
  %30 = tail call range(i32 0, 256) i32 @llvm.umin.i32(i32 %29, i32 255)
  %31 = trunc nuw i32 %30 to i8
  %32 = getelementptr inbounds nuw i8, ptr %2, i64 %indvars.iv
  store i8 %31, ptr %32, align 1, !tbaa !11
  %indvars.iv.next = add nuw nsw i64 %indvars.iv, 1
  %33 = getelementptr inbounds nuw i8, ptr %.019, i64 8
  %exitcond.not = icmp eq i64 %indvars.iv.next, %wide.trip.count
  br i1 %exitcond.not, label %._crit_edge, label %.lr.ph, !llvm.loop !15

._crit_edge:                                      ; preds = %.lr.ph, %4
  ret void
}